(dp0
S'query_table'
p1
V"trip_stops"
p2
sS'coltables'
p3
(lp4
Vtrip_stops
p5
asS'dbpath'
p6
VH:/google_transit/google_transit.sqlite
p7
sS'query_where'
p8
V
p9
sS'col_col'
p10
(lp11
V"trip_stops".'trip_id'
p12
aV"trip_stops".'stop_ids'
p13
asS'query_group'
p14
V"trip_stops".'stop_ids'
p15
sS'query_order'
p16
g9
sS'col_where'
p17
(lp18
sS'query_cols'
p19
Vmin("trip_stops".'trip_id') as trip_id,\u000a"trip_stops".'stop_ids'
p20
s.